; Function Attrs: mustprogress uwtable
define noundef nonnull align 8 dereferenceable(64) ptr @_ZN6icu_7517TimeZoneNamesImpl19_getReferenceZoneIDERKNS_13UnicodeStringEPKcRS1_(ptr noundef nonnull align 8 dereferenceable(64) %mzID, ptr noundef %region, ptr noundef nonnull returned align 8 dereferenceable(64) %tzID) local_unnamed_addr #1 align 2 personality ptr @__gxx_personality_v0 {
entry:
  %ref.tmp = alloca %"class.icu_75::UnicodeString", align 8
  call void @_ZN6icu_7513UnicodeStringC1EPKciNS0_10EInvariantE(ptr noundef nonnull align 8 dereferenceable(64) %ref.tmp, ptr noundef %region, i32 noundef -1, i32 noundef 0)
  %call = invoke noundef nonnull align 8 dereferenceable(64) ptr @_ZN6icu_758ZoneMeta19getZoneIdByMetazoneERKNS_13UnicodeStringES3_RS1_(ptr noundef nonnull align 8 dereferenceable(64) %mzID, ptr noundef nonnull align 8 dereferenceable(64) %ref.tmp, ptr noundef nonnull align 8 dereferenceable(64) %tzID)
          to label %invoke.cont unwind label %lpad

invoke.cont:                                      ; preds = %entry
  call void @_ZN6icu_7513UnicodeStringD1Ev(ptr noundef nonnull align 8 dereferenceable(64) %ref.tmp) #20
  ret ptr %tzID

lpad:                                             ; preds = %entry
  %0 = landingpad { ptr, i32 }
          cleanup
  call void @_ZN6icu_7513UnicodeStringD1Ev(ptr noundef nonnull align 8 dereferenceable(64) %ref.tmp) #20
  resume { ptr, i32 } %0
}